	.text
	.file	"tsvc-functions.c"
	.file	0 "/home/rouzbeh/Graduate/LLVM/Active-Lane-Conslidation/Transformation-Pass/Vectorizer-Pass/test" "tsvc-functions.c" md5 0xc6f620ae9f6e00b4e2b646d0818f2f39
	.globl	s253                            // -- Begin function s253
	.p2align	2
	.type	s253,@function
s253:                                   // @s253
.Lfunc_begin0:
	.loc	0 24 0                          // tsvc-functions.c:24:0
	.cfi_startproc
// %bb.0:                               // %entry
	//DEBUG_VALUE: s253:func_args <- $x0
	sub	sp, sp, #112
	.cfi_def_cfa_offset 112
	stp	x29, x30, [sp, #16]             // 16-byte Folded Spill
	stp	x28, x27, [sp, #32]             // 16-byte Folded Spill
	stp	x26, x25, [sp, #48]             // 16-byte Folded Spill
	stp	x24, x23, [sp, #64]             // 16-byte Folded Spill
	stp	x22, x21, [sp, #80]             // 16-byte Folded Spill
	stp	x20, x19, [sp, #96]             // 16-byte Folded Spill
	add	x29, sp, #16
	.cfi_def_cfa w29, 96
	.cfi_offset w19, -8
	.cfi_offset w20, -16
	.cfi_offset w21, -24
	.cfi_offset w22, -32
	.cfi_offset w23, -40
	.cfi_offset w24, -48
	.cfi_offset w25, -56
	.cfi_offset w26, -64
	.cfi_offset w27, -72
	.cfi_offset w28, -80
	.cfi_offset w30, -88
	.cfi_offset w29, -96
	mov	x19, x0
.Ltmp0:
	//DEBUG_VALUE: s253:func_args <- $x19
	//DEBUG_VALUE: s253:func_args <- $x19
	.loc	0 29 5 prologue_end             // tsvc-functions.c:29:5
	adrp	x0, .L__func__.s253
	add	x0, x0, :lo12:.L__func__.s253
	bl	initialise_arrays
.Ltmp1:
	.loc	0 30 5                          // tsvc-functions.c:30:5
	mov	x0, x19
	mov	x1, xzr
	str	x19, [sp, #8]                   // 8-byte Folded Spill
.Ltmp2:
	//DEBUG_VALUE: s253:func_args <- [DW_OP_plus_uconst 8] [$sp+0]
	//DEBUG_VALUE: s253:func_args <- [DW_OP_plus_uconst 8] [$sp+0]
	bl	gettimeofday
.Ltmp3:
	//DEBUG_VALUE: nl <- 0
	.loc	0 0 5 is_stmt 0                 // tsvc-functions.c:0:5
	rdvl	x8, #1
	mov	w24, #34464
	mov	w28, wzr
	lsr	x19, x8, #4
	adrp	x20, c
	add	x20, x20, :lo12:c
	adrp	x21, d
	add	x21, x21, :lo12:d
	adrp	x22, a
	add	x22, x22, :lo12:a
	adrp	x23, b
	add	x23, x23, :lo12:b
	adrp	x25, aa
	add	x25, x25, :lo12:aa
	movk	w24, #1, lsl #16
	adrp	x26, bb
	add	x26, x26, :lo12:bb
	adrp	x27, cc
	add	x27, x27, :lo12:cc
	ptrue	p1.s
	b	.LBB0_2
.Ltmp4:
.LBB0_1:                                // %for.cond.cleanup4
                                        //   in Loop: Header=BB0_2 Depth=1
	//DEBUG_VALUE: nl <- $w28
	//DEBUG_VALUE: s253:func_args <- [DW_OP_plus_uconst 8] [$sp+0]
	.loc	0 41 9 is_stmt 1                // tsvc-functions.c:41:9
	mov	x0, x22
	mov	x1, x23
	mov	x2, x20
	mov	x3, x21
	adrp	x4, e
	add	x4, x4, :lo12:e
	mov	x5, x25
	mov	x6, x26
	mov	x7, x27
	str	wzr, [sp]
	bl	dummy
.Ltmp5:
	.loc	0 33 41                         // tsvc-functions.c:33:41
	add	w28, w28, #1
.Ltmp6:
	//DEBUG_VALUE: nl <- $w28
	.loc	0 0 41 is_stmt 0                // tsvc-functions.c:0:41
	ptrue	p1.s
.Ltmp7:
	.loc	0 33 5                          // tsvc-functions.c:33:5
	cmp	w28, w24
	b.eq	.LBB0_11
.Ltmp8:
.LBB0_2:                                // %for.cond2.preheader
                                        // =>This Loop Header: Depth=1
                                        //     Child Loop BB0_4 Depth 2
                                        //     Child Loop BB0_9 Depth 2
	//DEBUG_VALUE: s253:func_args <- [DW_OP_plus_uconst 8] [$sp+0]
	//DEBUG_VALUE: nl <- $w28
	//DEBUG_VALUE: i <- 0
	.loc	0 34 9 is_stmt 1                // tsvc-functions.c:34:9
	mov	w8, #32001
	cmp	x8, w19, uxtw #2
	b.ls	.LBB0_6
.Ltmp9:
// %bb.3:                               // %Pre.Vectorization
                                        //   in Loop: Header=BB0_2 Depth=1
	//DEBUG_VALUE: i <- 0
	//DEBUG_VALUE: nl <- $w28
	//DEBUG_VALUE: s253:func_args <- [DW_OP_plus_uconst 8] [$sp+0]
	.loc	0 0 9 is_stmt 0                 // tsvc-functions.c:0:9
	and	x11, x19, #0xffffffff
	mov	w14, #32000
	lsl	x9, x11, #2
	mov	x8, xzr
	mov	x12, x22
	lsl	x13, x11, #4
	udiv	x10, x14, x9
	mov	x15, x20
	mul	x10, x10, x9
	sub	x11, x14, x10
	mov	x14, x21
.Ltmp10:
.LBB0_4:                                // %vectorizing.block
                                        //   Parent Loop BB0_2 Depth=1
                                        // =>  This Inner Loop Header: Depth=2
	//DEBUG_VALUE: i <- 0
	//DEBUG_VALUE: nl <- $w28
	//DEBUG_VALUE: s253:func_args <- [DW_OP_plus_uconst 8] [$sp+0]
	ld1w	{ z0.s }, p1/z, [x12]
	ld1w	{ z1.s }, p1/z, [x23, x8, lsl #2]
	add	x8, x8, x9
	cmpgt	p0.s, p1/z, z0.s, z1.s
	ld1w	{ z2.s }, p0/z, [x14]
	ld1w	{ z3.s }, p0/z, [x15]
	add	x14, x14, x13
	cmp	x8, x10
	mul	z2.s, p0/m, z2.s, z1.s
	sub	z0.s, p0/m, z0.s, z2.s
	mov	z1.d, z0.d
	add	z1.s, p0/m, z1.s, z3.s
	st1w	{ z1.s }, p0, [x15]
	st1w	{ z0.s }, p0, [x12]
	add	x15, x15, x13
	add	x12, x12, x13
	b.lo	.LBB0_4
.Ltmp11:
// %bb.5:                               // %middle.block
                                        //   in Loop: Header=BB0_2 Depth=1
	//DEBUG_VALUE: i <- 0
	//DEBUG_VALUE: nl <- $w28
	//DEBUG_VALUE: s253:func_args <- [DW_OP_plus_uconst 8] [$sp+0]
	cbnz	x11, .LBB0_7
	b	.LBB0_1
.Ltmp12:
.LBB0_6:                                //   in Loop: Header=BB0_2 Depth=1
	//DEBUG_VALUE: i <- 0
	//DEBUG_VALUE: nl <- $w28
	//DEBUG_VALUE: s253:func_args <- [DW_OP_plus_uconst 8] [$sp+0]
	mov	x8, xzr
.Ltmp13:
.LBB0_7:                                // %for.body5.preheader
                                        //   in Loop: Header=BB0_2 Depth=1
	//DEBUG_VALUE: i <- 0
	//DEBUG_VALUE: nl <- $w28
	//DEBUG_VALUE: s253:func_args <- [DW_OP_plus_uconst 8] [$sp+0]
	.loc	0 34 9                          // tsvc-functions.c:34:9
	mov	x9, #-32000
	lsl	x12, x8, #2
	add	x9, x8, x9
	add	x8, x20, x12
	add	x10, x21, x12
	add	x11, x23, x12
	add	x12, x22, x12
	b	.LBB0_9
.Ltmp14:
.LBB0_8:                                // %for.inc
                                        //   in Loop: Header=BB0_9 Depth=2
	//DEBUG_VALUE: i <- [DW_OP_plus_uconst 32000, DW_OP_stack_value] $x9
	//DEBUG_VALUE: nl <- $w28
	//DEBUG_VALUE: s253:func_args <- [DW_OP_plus_uconst 8] [$sp+0]
	//DEBUG_VALUE: i <- [DW_OP_plus_uconst 32001, DW_OP_stack_value] $x9
	.loc	0 34 27                         // tsvc-functions.c:34:27
	adds	x9, x9, #1
.Ltmp15:
	add	x8, x8, #4
	add	x10, x10, #4
	add	x11, x11, #4
	add	x12, x12, #4
.Ltmp16:
	.loc	0 34 9                          // tsvc-functions.c:34:9
	b.hs	.LBB0_1
.Ltmp17:
.LBB0_9:                                // %for.body5
                                        //   Parent Loop BB0_2 Depth=1
                                        // =>  This Inner Loop Header: Depth=2
	//DEBUG_VALUE: nl <- $w28
	//DEBUG_VALUE: s253:func_args <- [DW_OP_plus_uconst 8] [$sp+0]
	//DEBUG_VALUE: i <- [DW_OP_plus_uconst 32000, DW_OP_stack_value] $x9
	.loc	0 35 17 is_stmt 1               // tsvc-functions.c:35:17
	ldr	w13, [x12]
	.loc	0 35 24 is_stmt 0               // tsvc-functions.c:35:24
	ldr	w14, [x11]
.Ltmp18:
	.loc	0 35 17                         // tsvc-functions.c:35:17
	cmp	w13, w14
	b.le	.LBB0_8
.Ltmp19:
// %bb.10:                              // %if.then
                                        //   in Loop: Header=BB0_9 Depth=2
	//DEBUG_VALUE: i <- [DW_OP_plus_uconst 32000, DW_OP_stack_value] $x9
	//DEBUG_VALUE: nl <- $w28
	//DEBUG_VALUE: s253:func_args <- [DW_OP_plus_uconst 8] [$sp+0]
	.loc	0 36 35 is_stmt 1               // tsvc-functions.c:36:35
	ldr	w15, [x10]
	.loc	0 37 22                         // tsvc-functions.c:37:22
	ldr	w16, [x8]
	.loc	0 36 26                         // tsvc-functions.c:36:26
	msub	w13, w15, w14, w13
.Ltmp20:
	//DEBUG_VALUE: s253:s <- $w13
	.loc	0 37 22                         // tsvc-functions.c:37:22
	add	w14, w13, w16
	.loc	0 38 22                         // tsvc-functions.c:38:22
	str	w13, [x12]
	.loc	0 37 22                         // tsvc-functions.c:37:22
	str	w14, [x8]
	b	.LBB0_8
.Ltmp21:
.LBB0_11:                               // %for.cond.cleanup
	//DEBUG_VALUE: s253:func_args <- [DW_OP_plus_uconst 8] [$sp+0]
	.loc	0 0 22 is_stmt 0                // tsvc-functions.c:0:22
	ldr	x8, [sp, #8]                    // 8-byte Folded Reload
	.loc	0 44 5 is_stmt 1                // tsvc-functions.c:44:5
	mov	x1, xzr
	.loc	0 44 30 is_stmt 0               // tsvc-functions.c:44:30
	add	x0, x8, #16
	.loc	0 44 5                          // tsvc-functions.c:44:5
	bl	gettimeofday
.Ltmp22:
	.loc	0 45 12 is_stmt 1               // tsvc-functions.c:45:12
	adrp	x0, .L__func__.s253
	add	x0, x0, :lo12:.L__func__.s253
	.cfi_def_cfa wsp, 112
	ldp	x20, x19, [sp, #96]             // 16-byte Folded Reload
	ldp	x22, x21, [sp, #80]             // 16-byte Folded Reload
	ldp	x24, x23, [sp, #64]             // 16-byte Folded Reload
	ldp	x26, x25, [sp, #48]             // 16-byte Folded Reload
	ldp	x28, x27, [sp, #32]             // 16-byte Folded Reload
	ldp	x29, x30, [sp, #16]             // 16-byte Folded Reload
	add	sp, sp, #112
.Ltmp23:
	.cfi_def_cfa_offset 0
	.cfi_restore w19
	.cfi_restore w20
	.cfi_restore w21
	.cfi_restore w22
	.cfi_restore w23
	.cfi_restore w24
	.cfi_restore w25
	.cfi_restore w26
	.cfi_restore w27
	.cfi_restore w28
	.cfi_restore w30
	.cfi_restore w29
	b	calc_checksum
.Ltmp24:
.Lfunc_end0:
	.size	s253, .Lfunc_end0-s253
	.cfi_endproc
	.file	1 "." "common.h" md5 0x5e4aaa336c606013c82cfcd9c7a7c62d
	.file	2 "/usr/lib/gcc-cross/aarch64-linux-gnu/9/../../../../aarch64-linux-gnu/include/sys" "time.h" md5 0x99ab902f1529d4d72694df20fbf7a8ec
	.file	3 "/usr/lib/gcc-cross/aarch64-linux-gnu/9/../../../../aarch64-linux-gnu/include/bits" "types.h" md5 0xf6304b1a6dcfc6bee76e9a51043b5090
	.file	4 "/usr/lib/gcc-cross/aarch64-linux-gnu/9/../../../../aarch64-linux-gnu/include/bits/types" "struct_timeval.h" md5 0x7798c68081a8161421218378689a8d48
                                        // -- End function
	.globl	main                            // -- Begin function main
	.p2align	2
	.type	main,@function
main:                                   // @main
.Lfunc_begin1:
	.loc	0 49 0                          // tsvc-functions.c:49:0
	.cfi_startproc
// %bb.0:                               // %entry
	//DEBUG_VALUE: main:argc <- $w0
	//DEBUG_VALUE: main:argv <- $x1
	sub	sp, sp, #32
	.cfi_def_cfa_offset 32
	stp	x29, x30, [sp, #16]             // 16-byte Folded Spill
	add	x29, sp, #16
	.cfi_def_cfa w29, 16
	.cfi_offset w30, -8
	.cfi_offset w29, -16
.Ltmp25:
	//DEBUG_VALUE: main:n1 <- 1
	//DEBUG_VALUE: main:n3 <- 1
	//DEBUG_VALUE: main:ip <- [DW_OP_plus_uconst 8, DW_OP_deref] $sp
	//DEBUG_VALUE: main:s1 <- [DW_OP_plus_uconst 4, DW_OP_deref] $sp
	//DEBUG_VALUE: main:s2 <- [DW_OP_deref] $sp
	.loc	0 54 5 prologue_end             // tsvc-functions.c:54:5
	add	x0, sp, #8
.Ltmp26:
	//DEBUG_VALUE: main:argc <- [DW_OP_LLVM_entry_value 1] $w0
	add	x1, sp, #4
.Ltmp27:
	//DEBUG_VALUE: main:argv <- [DW_OP_LLVM_entry_value 1] $x1
	mov	x2, sp
	bl	init
.Ltmp28:
	.loc	0 55 5                          // tsvc-functions.c:55:5
	adrp	x0, .Lstr
	add	x0, x0, :lo12:.Lstr
	bl	puts
.Ltmp29:
	.loc	0 57 6                          // tsvc-functions.c:57:6
	adrp	x0, s253
	add	x0, x0, :lo12:s253
	mov	x1, xzr
	bl	time_function
.Ltmp30:
	.loc	0 58 1                          // tsvc-functions.c:58:1
	mov	w0, wzr
	.cfi_def_cfa wsp, 32
	ldp	x29, x30, [sp, #16]             // 16-byte Folded Reload
	add	sp, sp, #32
.Ltmp31:
	.cfi_def_cfa_offset 0
	.cfi_restore w30
	.cfi_restore w29
	ret
.Ltmp32:
.Lfunc_end1:
	.size	main, .Lfunc_end1-main
	.cfi_endproc
                                        // -- End function
	.type	.L__func__.s253,@object         // @__func__.s253
	.section	.rodata.str1.1,"aMS",@progbits,1
.L__func__.s253:
	.asciz	"s253"
	.size	.L__func__.s253, 5

	.type	a,@object                       // @a
	.bss
	.globl	a
	.p2align	6
a:
	.zero	128000
	.size	a, 128000

	.type	b,@object                       // @b
	.globl	b
	.p2align	6
b:
	.zero	128000
	.size	b, 128000

	.type	d,@object                       // @d
	.globl	d
	.p2align	6
d:
	.zero	128000
	.size	d, 128000

	.type	c,@object                       // @c
	.globl	c
	.p2align	6
c:
	.zero	128000
	.size	c, 128000

	.type	e,@object                       // @e
	.globl	e
	.p2align	6
e:
	.zero	128000
	.size	e, 128000

	.type	aa,@object                      // @aa
	.globl	aa
	.p2align	6
aa:
	.zero	262144
	.size	aa, 262144

	.type	bb,@object                      // @bb
	.globl	bb
	.p2align	6
bb:
	.zero	262144
	.size	bb, 262144

	.type	cc,@object                      // @cc
	.globl	cc
	.p2align	6
cc:
	.zero	262144
	.size	cc, 262144

	.type	flat_2d_array,@object           // @flat_2d_array
	.globl	flat_2d_array
	.p2align	6
flat_2d_array:
	.zero	262144
	.size	flat_2d_array, 262144

	.type	x,@object                       // @x
	.globl	x
	.p2align	6
x:
	.zero	128000
	.size	x, 128000

	.type	tt,@object                      // @tt
	.globl	tt
	.p2align	6
tt:
	.zero	262144
	.size	tt, 262144

	.type	indx,@object                    // @indx
	.globl	indx
	.p2align	6
indx:
	.zero	128000
	.size	indx, 128000

	.type	xx,@object                      // @xx
	.globl	xx
	.p2align	3
xx:
	.xword	0
	.size	xx, 8

	.type	yy,@object                      // @yy
	.globl	yy
	.p2align	3
yy:
	.xword	0
	.size	yy, 8

	.type	.Lstr,@object                   // @str
	.section	.rodata.str1.1,"aMS",@progbits,1
.Lstr:
	.asciz	"Loop \tTime(sec) \tChecksum"
	.size	.Lstr, 26

	.section	".note.GNU-stack","",@progbits