	.text
	.file	"testCase.c"
	.globl	foo                             // -- Begin function foo
	.p2align	2
	.type	foo,@function
foo:                                    // @foo
.Lfunc_begin0:
	.file	0 "/home/rouzbeh/Graduate/LLVM/Active-Lane-Conslidation/Test_Generator Pass/test" "testCase.c" md5 0x9ebce2e5df555f7ca91a1cb1694a1449
	.loc	0 4 0                           // testCase.c:4:0
	.cfi_startproc
// %bb.0:                               // %entry
	.loc	0 6 1 prologue_end              // testCase.c:6:1
	ptrue	p0.s, vl4
	ld1w	{ z0.s }, p0/z, [x0]
	ld1w	{ z1.s }, p0/z, [x1]
	mul	z0.s, p0/m, z0.s, z1.s
	st1w	{ z0.s }, p0, [x2]
	ret
.Ltmp0:
.Lfunc_end0:
	.size	foo, .Lfunc_end0-foo
	.cfi_endproc
                                        // -- End function
	.globl	main                            // -- Begin function main
	.p2align	2
	.type	main,@function
main:                                   // @main
.Lfunc_begin1:
	.loc	0 8 0                           // testCase.c:8:0
	.cfi_startproc
// %bb.0:                               // %entry
	sub	sp, sp, #96
	.cfi_def_cfa_offset 96
	stp	x29, x30, [sp, #48]             // 16-byte Folded Spill
	str	x21, [sp, #64]                  // 8-byte Folded Spill
	stp	x20, x19, [sp, #80]             // 16-byte Folded Spill
	add	x29, sp, #48
	.cfi_def_cfa w29, 48
	.cfi_offset w19, -8
	.cfi_offset w20, -16
	.cfi_offset w21, -32
	.cfi_offset w30, -40
	.cfi_offset w29, -48
	mov	x8, xzr
.Ltmp1:
	.loc	0 9 5 prologue_end              // testCase.c:9:5
	//APP
	dmb	sy
	orr	x3, x3, x3

	//NO_APP
.Ltmp2:
	//DEBUG_VALUE: i <- 0
	//DEBUG_VALUE: main:__vla_expr2 <- 4
	//DEBUG_VALUE: main:__vla_expr1 <- 4
	//DEBUG_VALUE: main:__vla_expr0 <- 4
	//DEBUG_VALUE: main:n <- 4
	.loc	0 0 5 is_stmt 0                 // testCase.c:0:5
	sub	x9, x29, #16
	add	x10, sp, #16
.Ltmp3:
	.loc	0 19 14 is_stmt 1               // testCase.c:19:14
	str	wzr, [sp, #12]
	stur	xzr, [sp, #4]
.Ltmp4:
.LBB1_1:                                // %for.body
                                        // =>This Inner Loop Header: Depth=1
	//DEBUG_VALUE: main:n <- 4
	//DEBUG_VALUE: main:__vla_expr0 <- 4
	//DEBUG_VALUE: main:__vla_expr1 <- 4
	//DEBUG_VALUE: main:__vla_expr2 <- 4
	//DEBUG_VALUE: i <- $x8
	.loc	0 17 14                         // testCase.c:17:14
	lsl	x11, x8, #2
	str	w8, [x9, x11]
	.loc	0 18 14                         // testCase.c:18:14
	str	w8, [x10, x11]
.Ltmp5:
	.loc	0 16 28                         // testCase.c:16:28
	add	x8, x8, #1
.Ltmp6:
	//DEBUG_VALUE: i <- $x8
	.loc	0 16 5 is_stmt 0                // testCase.c:16:5
	cmp	x8, #4
	b.ne	.LBB1_1
.Ltmp7:
// %bb.2:                               // %for.cond.cleanup
	//DEBUG_VALUE: main:n <- 4
	//DEBUG_VALUE: main:__vla_expr0 <- 4
	//DEBUG_VALUE: main:__vla_expr1 <- 4
	//DEBUG_VALUE: main:__vla_expr2 <- 4
	//DEBUG_VALUE: foo:a <- [DW_OP_constu 16, DW_OP_minus, DW_OP_stack_value] $fp
	//DEBUG_VALUE: foo:b <- [DW_OP_plus_uconst 16, DW_OP_stack_value] $sp
	//DEBUG_VALUE: foo:c <- $sp
	.loc	0 5 12 is_stmt 1                // testCase.c:5:12
	ldur	w8, [x29, #-16]
.Ltmp8:
	.loc	0 25 9                          // testCase.c:25:9
	adrp	x19, .L.str
	add	x19, x19, :lo12:.L.str
.Ltmp9:
	.loc	0 5 19                          // testCase.c:5:19
	ldr	w9, [sp, #16]
.Ltmp10:
	.loc	0 25 9                          // testCase.c:25:9
	mov	x0, x19
.Ltmp11:
	.loc	0 5 17                          // testCase.c:5:17
	add	w1, w9, w8
	.loc	0 5 10 is_stmt 0                // testCase.c:5:10
	str	w1, [sp]
.Ltmp12:
	//DEBUG_VALUE: i <- 0
	.loc	0 25 9 is_stmt 1                // testCase.c:25:9
	bl	printf
.Ltmp13:
	.loc	0 0 9 is_stmt 0                 // testCase.c:0:9
	mov	w20, #4
.Ltmp14:
	//DEBUG_VALUE: i <- 1
	mov	x21, sp
.Ltmp15:
.LBB1_3:                                // %for.body11.for.body11_crit_edge
                                        // =>This Inner Loop Header: Depth=1
	//DEBUG_VALUE: main:n <- 4
	//DEBUG_VALUE: main:__vla_expr0 <- 4
	//DEBUG_VALUE: main:__vla_expr1 <- 4
	//DEBUG_VALUE: main:__vla_expr2 <- 4
	.loc	0 25 23                         // testCase.c:25:23
	ldr	w1, [x21, x20]
.Ltmp16:
	//DEBUG_VALUE: i <- [DW_OP_consts 4, DW_OP_minus, DW_OP_consts 4, DW_OP_div, DW_OP_consts 1, DW_OP_plus, DW_OP_stack_value] $x20
	.loc	0 25 9                          // testCase.c:25:9
	mov	x0, x19
	bl	printf
.Ltmp17:
	//DEBUG_VALUE: i <- [DW_OP_consts 4, DW_OP_minus, DW_OP_consts 4, DW_OP_div, DW_OP_consts 2, DW_OP_plus, DW_OP_stack_value] $x20
	.loc	0 24 23 is_stmt 1               // testCase.c:24:23
	add	x20, x20, #4
.Ltmp18:
	.loc	0 24 5 is_stmt 0                // testCase.c:24:5
	cmp	x20, #16
	b.ne	.LBB1_3
.Ltmp19:
// %bb.4:                               // %for.cond.cleanup10
	//DEBUG_VALUE: main:n <- 4
	//DEBUG_VALUE: main:__vla_expr0 <- 4
	//DEBUG_VALUE: main:__vla_expr1 <- 4
	//DEBUG_VALUE: main:__vla_expr2 <- 4
	.loc	0 27 5 is_stmt 1                // testCase.c:27:5
	//APP
	dmb	sy
	orr	x4, x4, x4

	//NO_APP
	.loc	0 30 1                          // testCase.c:30:1
	mov	w0, wzr
	.cfi_def_cfa wsp, 96
	ldp	x20, x19, [sp, #80]             // 16-byte Folded Reload
	ldp	x29, x30, [sp, #48]             // 16-byte Folded Reload
	ldr	x21, [sp, #64]                  // 8-byte Folded Reload
	add	sp, sp, #96
	.cfi_def_cfa_offset 0
	.cfi_restore w19
	.cfi_restore w20
	.cfi_restore w21
	.cfi_restore w30
	.cfi_restore w29
	ret
.Ltmp20:
.Lfunc_end1:
	.size	main, .Lfunc_end1-main
	.cfi_endproc
                                        // -- End function
	.type	.L.str,@object                  // @.str
	.section	.rodata.str1.1,"aMS",@progbits,1
.L.str:
	.asciz	"%d "
	.size	.L.str, 4

	.section	".note.GNU-stack","",@progbits